(dp0
S'MATT'
p1
(dp2
S'cellphone'
p3
S'444-444-4444'
p4
sS'workphone'
p5
S'333-333-3333'
p6
sS'homephone'
p7
S'222-222-2222'
p8
ssS'JERI'
p9
(dp10
g3
S'777-777-7777'
p11
sg5
S'666-666-6666'
p12
sg7
S'555-555-5555'
p13
ss.